target datalayout = "e-m:e-p270:32:32-p271:32:32-p272:64:64-i64:64-f80:128-n8:16:32:64-S128"
target triple = "x86_64-pc-linux-gnu"

@n = common dso_local global i32 0, align 4
@k = common dso_local global i32 0, align 4
@.str = private unnamed_addr constant [3 x i8] c"%d\00", align 1
@i = common dso_local global i32 0, align 4
@j = common dso_local global i32 0, align 4
@.str.1 = private unnamed_addr constant [3 x i8] c"NO\00", align 1
@.str.2 = private unnamed_addr constant [4 x i8] c"%d\0A\00", align 1
@.str.3 = private unnamed_addr constant [2 x i8] c"\0A\00", align 1

; Function Attrs: noinline nounwind uwtable
define dso_local i32 @bijiao(i8* %0, i8* %1) #0 {
  %3 = alloca i8*, align 8
  %4 = alloca i8*, align 8
  %5 = alloca i32, align 4
  %6 = alloca i32, align 4
  store i8* %0, i8** %3, align 8
  store i8* %1, i8** %4, align 8
  store i32 1, i32* %6, align 4
  store i32 0, i32* %5, align 4
  br label %7

7:                                                ; preds = %29, %2
  %8 = load i32, i32* %5, align 4
  %9 = load i32, i32* @n, align 4
  %10 = icmp slt i32 %8, %9
  br i1 %10, label %11, label %32

11:                                               ; preds = %7
  %12 = load i8*, i8** %3, align 8
  %13 = load i32, i32* %5, align 4
  %14 = sext i32 %13 to i64
  %15 = getelementptr inbounds i8, i8* %12, i64 %14
  %16 = load i8, i8* %15, align 1
  %17 = sext i8 %16 to i32
  %18 = load i8*, i8** %4, align 8
  %19 = load i32, i32* @k, align 4
  %20 = load i32, i32* %5, align 4
  %21 = add nsw i32 %19, %20
  %22 = sext i32 %21 to i64
  %23 = getelementptr inbounds i8, i8* %18, i64 %22
  %24 = load i8, i8* %23, align 1
  %25 = sext i8 %24 to i32
  %26 = icmp ne i32 %17, %25
  br i1 %26, label %27, label %28

27:                                               ; preds = %11
  store i32 0, i32* %6, align 4
  br label %28

28:                                               ; preds = %27, %11
  br label %29

29:                                               ; preds = %28
  %30 = load i32, i32* %5, align 4
  %31 = add nsw i32 %30, 1
  store i32 %31, i32* %5, align 4
  br label %7

32:                                               ; preds = %7
  %33 = load i32, i32* %6, align 4
  ret i32 %33
}

; Function Attrs: noinline nounwind uwtable
define dso_local i32 @main() #0 {
  %1 = alloca i32, align 4
  %2 = alloca i32, align 4
  %3 = alloca i32, align 4
  %4 = alloca i32, align 4
  %5 = alloca i32, align 4
  %6 = alloca [1000 x i32], align 16
  %7 = alloca [501 x i8], align 16
  %8 = alloca [6 x i8], align 1
  %9 = alloca [1000 x [6 x i8]], align 16
  store i32 0, i32* %1, align 4
  store i32 0, i32* %2, align 4
  store i32 0, i32* %4, align 4
  %10 = bitcast [1000 x i32]* %6 to i8*
  call void @llvm.memset.p0i8.i64(i8* align 16 %10, i8 0, i64 4000, i1 false)
  %11 = bitcast [501 x i8]* %7 to i8*
  call void @llvm.memset.p0i8.i64(i8* align 16 %11, i8 0, i64 501, i1 false)
  %12 = bitcast [6 x i8]* %8 to i8*
  call void @llvm.memset.p0i8.i64(i8* align 1 %12, i8 0, i64 6, i1 false)
  %13 = bitcast [1000 x [6 x i8]]* %9 to i8*
  call void @llvm.memset.p0i8.i64(i8* align 16 %13, i8 0, i64 6000, i1 false)
  %14 = call i32 (i8*, ...) @__isoc99_scanf(i8* getelementptr inbounds ([3 x i8], [3 x i8]* @.str, i64 0, i64 0), i32* @n)
  %15 = call i32 @getchar()
  store i32 %15, i32* %3, align 4
  %16 = getelementptr inbounds [501 x i8], [501 x i8]* %7, i64 0, i64 0
  %17 = call i32 (i8*, ...) bitcast (i32 (...)* @gets to i32 (i8*, ...)*)(i8* %16)
  %18 = getelementptr inbounds [501 x i8], [501 x i8]* %7, i64 0, i64 0
  %19 = call i64 @strlen(i8* %18) #5
  %20 = trunc i64 %19 to i32
  store i32 %20, i32* %5, align 4
  store i32 0, i32* @i, align 4
  br label %21

21:                                               ; preds = %79, %0
  %22 = load i32, i32* @i, align 4
  %23 = load i32, i32* %5, align 4
  %24 = load i32, i32* @n, align 4
  %25 = sub nsw i32 %23, %24
  %26 = icmp sle i32 %22, %25
  br i1 %26, label %27, label %82

27:                                               ; preds = %21
  store i32 0, i32* @j, align 4
  br label %28

28:                                               ; preds = %42, %27
  %29 = load i32, i32* @j, align 4
  %30 = load i32, i32* @n, align 4
  %31 = icmp slt i32 %29, %30
  br i1 %31, label %32, label %45

32:                                               ; preds = %28
  %33 = load i32, i32* @i, align 4
  %34 = load i32, i32* @j, align 4
  %35 = add nsw i32 %33, %34
  %36 = sext i32 %35 to i64
  %37 = getelementptr inbounds [501 x i8], [501 x i8]* %7, i64 0, i64 %36
  %38 = load i8, i8* %37, align 1
  %39 = load i32, i32* @j, align 4
  %40 = sext i32 %39 to i64
  %41 = getelementptr inbounds [6 x i8], [6 x i8]* %8, i64 0, i64 %40
  store i8 %38, i8* %41, align 1
  br label %42

42:                                               ; preds = %32
  %43 = load i32, i32* @j, align 4
  %44 = add nsw i32 %43, 1
  store i32 %44, i32* @j, align 4
  br label %28

45:                                               ; preds = %28
  store i32 0, i32* @k, align 4
  br label %46

46:                                               ; preds = %58, %45
  %47 = load i32, i32* @k, align 4
  %48 = load i32, i32* %5, align 4
  %49 = load i32, i32* @n, align 4
  %50 = sub nsw i32 %48, %49
  %51 = icmp sle i32 %47, %50
  br i1 %51, label %52, label %61

52:                                               ; preds = %46
  %53 = load i32, i32* %2, align 4
  %54 = getelementptr inbounds [6 x i8], [6 x i8]* %8, i64 0, i64 0
  %55 = getelementptr inbounds [501 x i8], [501 x i8]* %7, i64 0, i64 0
  %56 = call i32 @bijiao(i8* %54, i8* %55)
  %57 = add nsw i32 %53, %56
  store i32 %57, i32* %2, align 4
  br label %58

58:                                               ; preds = %52
  %59 = load i32, i32* @k, align 4
  %60 = add nsw i32 %59, 1
  store i32 %60, i32* @k, align 4
  br label %46

61:                                               ; preds = %46
  %62 = load i32, i32* %2, align 4
  %63 = load i32, i32* @i, align 4
  %64 = sext i32 %63 to i64
  %65 = getelementptr inbounds [1000 x i32], [1000 x i32]* %6, i64 0, i64 %64
  store i32 %62, i32* %65, align 4
  %66 = load i32, i32* @i, align 4
  %67 = sext i32 %66 to i64
  %68 = getelementptr inbounds [1000 x [6 x i8]], [1000 x [6 x i8]]* %9, i64 0, i64 %67
  %69 = getelementptr inbounds [6 x i8], [6 x i8]* %68, i64 0, i64 0
  %70 = getelementptr inbounds [6 x i8], [6 x i8]* %8, i64 0, i64 0
  %71 = call i8* @strcpy(i8* %69, i8* %70) #6
  %72 = load i32, i32* %4, align 4
  %73 = load i32, i32* %2, align 4
  %74 = icmp slt i32 %72, %73
  br i1 %74, label %75, label %77

75:                                               ; preds = %61
  %76 = load i32, i32* %2, align 4
  store i32 %76, i32* %4, align 4
  store i32 0, i32* %2, align 4
  br label %78

77:                                               ; preds = %61
  store i32 0, i32* %2, align 4
  br label %78

78:                                               ; preds = %77, %75
  br label %79

79:                                               ; preds = %78
  %80 = load i32, i32* @i, align 4
  %81 = add nsw i32 %80, 1
  store i32 %81, i32* @i, align 4
  br label %21

82:                                               ; preds = %21
  %83 = load i32, i32* %4, align 4
  %84 = icmp eq i32 %83, 1
  br i1 %84, label %85, label %87

85:                                               ; preds = %82
  %86 = call i32 (i8*, ...) @printf(i8* getelementptr inbounds ([3 x i8], [3 x i8]* @.str.1, i64 0, i64 0))
  store i32 0, i32* %1, align 4
  br label %150

87:                                               ; preds = %82
  store i32 0, i32* @i, align 4
  br label %88

88:                                               ; preds = %119, %87
  %89 = load i32, i32* @i, align 4
  %90 = load i32, i32* %5, align 4
  %91 = load i32, i32* @n, align 4
  %92 = sub nsw i32 %90, %91
  %93 = icmp sle i32 %89, %92
  br i1 %93, label %94, label %122

94:                                               ; preds = %88
  store i32 -1, i32* @j, align 4
  br label %95

95:                                               ; preds = %115, %94
  %96 = load i32, i32* @j, align 4
  %97 = load i32, i32* @i, align 4
  %98 = icmp slt i32 %96, %97
  br i1 %98, label %99, label %118

99:                                               ; preds = %95
  %100 = load i32, i32* @i, align 4
  %101 = sext i32 %100 to i64
  %102 = getelementptr inbounds [1000 x [6 x i8]], [1000 x [6 x i8]]* %9, i64 0, i64 %101
  %103 = getelementptr inbounds [6 x i8], [6 x i8]* %102, i64 0, i64 0
  %104 = load i32, i32* @j, align 4
  %105 = sext i32 %104 to i64
  %106 = getelementptr inbounds [1000 x [6 x i8]], [1000 x [6 x i8]]* %9, i64 0, i64 %105
  %107 = getelementptr inbounds [6 x i8], [6 x i8]* %106, i64 0, i64 0
  %108 = call i32 @strcmp(i8* %103, i8* %107) #5
  %109 = icmp eq i32 %108, 0
  br i1 %109, label %110, label %114

110:                                              ; preds = %99
  %111 = load i32, i32* @i, align 4
  %112 = sext i32 %111 to i64
  %113 = getelementptr inbounds [1000 x i32], [1000 x i32]* %6, i64 0, i64 %112
  store i32 0, i32* %113, align 4
  br label %114

114:                                              ; preds = %110, %99
  br label %115

115:                                              ; preds = %114
  %116 = load i32, i32* @j, align 4
  %117 = add nsw i32 %116, 1
  store i32 %117, i32* @j, align 4
  br label %95

118:                                              ; preds = %95
  br label %119

119:                                              ; preds = %118
  %120 = load i32, i32* @i, align 4
  %121 = add nsw i32 %120, 1
  store i32 %121, i32* @i, align 4
  br label %88

122:                                              ; preds = %88
  %123 = load i32, i32* %4, align 4
  %124 = call i32 (i8*, ...) @printf(i8* getelementptr inbounds ([4 x i8], [4 x i8]* @.str.2, i64 0, i64 0), i32 %123)
  store i32 0, i32* @i, align 4
  br label %125

125:                                              ; preds = %146, %122
  %126 = load i32, i32* @i, align 4
  %127 = load i32, i32* %5, align 4
  %128 = load i32, i32* @n, align 4
  %129 = sub nsw i32 %127, %128
  %130 = icmp sle i32 %126, %129
  br i1 %130, label %131, label %149

131:                                              ; preds = %125
  %132 = load i32, i32* @i, align 4
  %133 = sext i32 %132 to i64
  %134 = getelementptr inbounds [1000 x i32], [1000 x i32]* %6, i64 0, i64 %133
  %135 = load i32, i32* %134, align 4
  %136 = load i32, i32* %4, align 4
  %137 = icmp eq i32 %135, %136
  br i1 %137, label %138, label %145

138:                                              ; preds = %131
  %139 = load i32, i32* @i, align 4
  %140 = sext i32 %139 to i64
  %141 = getelementptr inbounds [1000 x [6 x i8]], [1000 x [6 x i8]]* %9, i64 0, i64 %140
  %142 = getelementptr inbounds [6 x i8], [6 x i8]* %141, i64 0, i64 0
  %143 = call i32 @puts(i8* %142)
  %144 = call i32 (i8*, ...) @printf(i8* getelementptr inbounds ([2 x i8], [2 x i8]* @.str.3, i64 0, i64 0))
  br label %145

145:                                              ; preds = %138, %131
  br label %146

146:                                              ; preds = %145
  %147 = load i32, i32* @i, align 4
  %148 = add nsw i32 %147, 1
  store i32 %148, i32* @i, align 4
  br label %125

149:                                              ; preds = %125
  store i32 0, i32* %1, align 4
  br label %150

150:                                              ; preds = %149, %85
  %151 = load i32, i32* %1, align 4
  ret i32 %151
}